target datalayout = "e-m:e-p270:32:32-p271:32:32-p272:64:64-i64:64-i128:128-f80:128-n8:16:32:64-S128"
target triple = "x86_64-pc-linux-gnu"

%struct.ossl_param_st = type { ptr, i32, ptr, i64, i64 }

@.str = private unnamed_addr constant [1 x i8] zeroinitializer, align 1
@.str.1 = private unnamed_addr constant [7 x i8] c"PBKDF2\00", align 1
@.str.2 = private unnamed_addr constant [5 x i8] c"pass\00", align 1
@.str.3 = private unnamed_addr constant [6 x i8] c"pkcs5\00", align 1
@.str.4 = private unnamed_addr constant [5 x i8] c"salt\00", align 1
@.str.5 = private unnamed_addr constant [5 x i8] c"iter\00", align 1
@.str.6 = private unnamed_addr constant [7 x i8] c"digest\00", align 1

; Function Attrs: nounwind uwtable
define i32 @ossl_pkcs5_pbkdf2_hmac_ex(ptr noundef %0, i32 noundef %1, ptr noundef %2, i32 noundef %3, i32 noundef %4, ptr noundef %5, i32 noundef %6, ptr noundef %7, ptr noundef %8, ptr noundef %9) #0 {
  %11 = alloca i32, align 4
  %12 = alloca ptr, align 8
  %13 = alloca i32, align 4
  %14 = alloca ptr, align 8
  %15 = alloca i32, align 4
  %16 = alloca i32, align 4
  %17 = alloca ptr, align 8
  %18 = alloca i32, align 4
  %19 = alloca ptr, align 8
  %20 = alloca ptr, align 8
  %21 = alloca ptr, align 8
  %22 = alloca ptr, align 8
  %23 = alloca i32, align 4
  %24 = alloca i32, align 4
  %25 = alloca ptr, align 8
  %26 = alloca ptr, align 8
  %27 = alloca ptr, align 8
  %28 = alloca [6 x %struct.ossl_param_st], align 16
  %29 = alloca ptr, align 8
  %30 = alloca i32, align 4
  %31 = alloca %struct.ossl_param_st, align 8
  %32 = alloca %struct.ossl_param_st, align 8
  %33 = alloca %struct.ossl_param_st, align 8
  %34 = alloca %struct.ossl_param_st, align 8
  %35 = alloca %struct.ossl_param_st, align 8
  %36 = alloca %struct.ossl_param_st, align 8
  %37 = alloca ptr, align 8
  store ptr %0, ptr %12, align 8, !tbaa !3
  store i32 %1, ptr %13, align 4, !tbaa !8
  store ptr %2, ptr %14, align 8, !tbaa !3
  store i32 %3, ptr %15, align 4, !tbaa !8
  store i32 %4, ptr %16, align 4, !tbaa !8
  store ptr %5, ptr %17, align 8, !tbaa !10
  store i32 %6, ptr %18, align 4, !tbaa !8
  store ptr %7, ptr %19, align 8, !tbaa !3
  store ptr %8, ptr %20, align 8, !tbaa !12
  store ptr %9, ptr %21, align 8, !tbaa !3
  call void @llvm.lifetime.start.p0(i64 8, ptr %22) #6
  store ptr @.str, ptr %22, align 8, !tbaa !3
  call void @llvm.lifetime.start.p0(i64 4, ptr %23) #6
  store i32 1, ptr %23, align 4, !tbaa !8
  call void @llvm.lifetime.start.p0(i64 4, ptr %24) #6
  store i32 1, ptr %24, align 4, !tbaa !8
  call void @llvm.lifetime.start.p0(i64 8, ptr %25) #6
  call void @llvm.lifetime.start.p0(i64 8, ptr %26) #6
  call void @llvm.lifetime.start.p0(i64 8, ptr %27) #6
  %38 = load ptr, ptr %17, align 8, !tbaa !10
  %39 = call ptr @EVP_MD_get0_name(ptr noundef %38)
  store ptr %39, ptr %27, align 8, !tbaa !3
  call void @llvm.lifetime.start.p0(i64 240, ptr %28) #6
  call void @llvm.lifetime.start.p0(i64 8, ptr %29) #6
  %40 = getelementptr inbounds [6 x %struct.ossl_param_st], ptr %28, i64 0, i64 0
  store ptr %40, ptr %29, align 8, !tbaa !14
  %41 = load ptr, ptr %12, align 8, !tbaa !3
  %42 = icmp eq ptr %41, null
  br i1 %42, label %43, label %45

43:                                               ; preds = %10
  %44 = load ptr, ptr %22, align 8, !tbaa !3
  store ptr %44, ptr %12, align 8, !tbaa !3
  store i32 0, ptr %13, align 4, !tbaa !8
  br label %53

45:                                               ; preds = %10
  %46 = load i32, ptr %13, align 4, !tbaa !8
  %47 = icmp eq i32 %46, -1
  br i1 %47, label %48, label %52

48:                                               ; preds = %45
  %49 = load ptr, ptr %12, align 8, !tbaa !3
  %50 = call i64 @strlen(ptr noundef %49) #7
  %51 = trunc i64 %50 to i32
  store i32 %51, ptr %13, align 4, !tbaa !8
  br label %52

52:                                               ; preds = %48, %45
  br label %53

53:                                               ; preds = %52, %43
  %54 = load ptr, ptr %14, align 8, !tbaa !3
  %55 = icmp eq ptr %54, null
  br i1 %55, label %56, label %61

56:                                               ; preds = %53
  %57 = load i32, ptr %15, align 4, !tbaa !8
  %58 = icmp eq i32 %57, 0
  br i1 %58, label %59, label %61

59:                                               ; preds = %56
  %60 = load ptr, ptr %22, align 8, !tbaa !3
  store ptr %60, ptr %14, align 8, !tbaa !3
  br label %61

61:                                               ; preds = %59, %56, %53
  %62 = load ptr, ptr %20, align 8, !tbaa !12
  %63 = load ptr, ptr %21, align 8, !tbaa !3
  %64 = call ptr @EVP_KDF_fetch(ptr noundef %62, ptr noundef @.str.1, ptr noundef %63)
  store ptr %64, ptr %25, align 8, !tbaa !16
  %65 = load ptr, ptr %25, align 8, !tbaa !16
  %66 = icmp eq ptr %65, null
  br i1 %66, label %67, label %68

67:                                               ; preds = %61
  store i32 0, ptr %11, align 4
  store i32 1, ptr %30, align 4
  br label %108

68:                                               ; preds = %61
  %69 = load ptr, ptr %25, align 8, !tbaa !16
  %70 = call ptr @EVP_KDF_CTX_new(ptr noundef %69)
  store ptr %70, ptr %26, align 8, !tbaa !18
  %71 = load ptr, ptr %25, align 8, !tbaa !16
  call void @EVP_KDF_free(ptr noundef %71)
  %72 = load ptr, ptr %26, align 8, !tbaa !18
  %73 = icmp eq ptr %72, null
  br i1 %73, label %74, label %75

74:                                               ; preds = %68
  store i32 0, ptr %11, align 4
  store i32 1, ptr %30, align 4
  br label %108

75:                                               ; preds = %68
  %76 = load ptr, ptr %29, align 8, !tbaa !14
  %77 = getelementptr inbounds nuw %struct.ossl_param_st, ptr %76, i32 1
  store ptr %77, ptr %29, align 8, !tbaa !14
  call void @llvm.lifetime.start.p0(i64 40, ptr %31) #6
  %78 = load ptr, ptr %12, align 8, !tbaa !3
  %79 = load i32, ptr %13, align 4, !tbaa !8
  %80 = sext i32 %79 to i64
  call void @OSSL_PARAM_construct_octet_string(ptr dead_on_unwind writable sret(%struct.ossl_param_st) align 8 %31, ptr noundef @.str.2, ptr noundef %78, i64 noundef %80)
  call void @llvm.memcpy.p0.p0.i64(ptr align 8 %76, ptr align 8 %31, i64 40, i1 false), !tbaa.struct !20
  call void @llvm.lifetime.end.p0(i64 40, ptr %31) #6
  %81 = load ptr, ptr %29, align 8, !tbaa !14
  %82 = getelementptr inbounds nuw %struct.ossl_param_st, ptr %81, i32 1
  store ptr %82, ptr %29, align 8, !tbaa !14
  call void @llvm.lifetime.start.p0(i64 40, ptr %32) #6
  call void @OSSL_PARAM_construct_int(ptr dead_on_unwind writable sret(%struct.ossl_param_st) align 8 %32, ptr noundef @.str.3, ptr noundef %24)
  call void @llvm.memcpy.p0.p0.i64(ptr align 8 %81, ptr align 8 %32, i64 40, i1 false), !tbaa.struct !20
  call void @llvm.lifetime.end.p0(i64 40, ptr %32) #6
  %83 = load ptr, ptr %29, align 8, !tbaa !14
  %84 = getelementptr inbounds nuw %struct.ossl_param_st, ptr %83, i32 1
  store ptr %84, ptr %29, align 8, !tbaa !14
  call void @llvm.lifetime.start.p0(i64 40, ptr %33) #6
  %85 = load ptr, ptr %14, align 8, !tbaa !3
  %86 = load i32, ptr %15, align 4, !tbaa !8
  %87 = sext i32 %86 to i64
  call void @OSSL_PARAM_construct_octet_string(ptr dead_on_unwind writable sret(%struct.ossl_param_st) align 8 %33, ptr noundef @.str.4, ptr noundef %85, i64 noundef %87)
  call void @llvm.memcpy.p0.p0.i64(ptr align 8 %83, ptr align 8 %33, i64 40, i1 false), !tbaa.struct !20
  call void @llvm.lifetime.end.p0(i64 40, ptr %33) #6
  %88 = load ptr, ptr %29, align 8, !tbaa !14
  %89 = getelementptr inbounds nuw %struct.ossl_param_st, ptr %88, i32 1
  store ptr %89, ptr %29, align 8, !tbaa !14
  call void @llvm.lifetime.start.p0(i64 40, ptr %34) #6
  call void @OSSL_PARAM_construct_int(ptr dead_on_unwind writable sret(%struct.ossl_param_st) align 8 %34, ptr noundef @.str.5, ptr noundef %16)
  call void @llvm.memcpy.p0.p0.i64(ptr align 8 %88, ptr align 8 %34, i64 40, i1 false), !tbaa.struct !20
  call void @llvm.lifetime.end.p0(i64 40, ptr %34) #6
  %90 = load ptr, ptr %29, align 8, !tbaa !14
  %91 = getelementptr inbounds nuw %struct.ossl_param_st, ptr %90, i32 1
  store ptr %91, ptr %29, align 8, !tbaa !14
  call void @llvm.lifetime.start.p0(i64 40, ptr %35) #6
  %92 = load ptr, ptr %27, align 8, !tbaa !3
  call void @OSSL_PARAM_construct_utf8_string(ptr dead_on_unwind writable sret(%struct.ossl_param_st) align 8 %35, ptr noundef @.str.6, ptr noundef %92, i64 noundef 0)
  call void @llvm.memcpy.p0.p0.i64(ptr align 8 %90, ptr align 8 %35, i64 40, i1 false), !tbaa.struct !20
  call void @llvm.lifetime.end.p0(i64 40, ptr %35) #6
  %93 = load ptr, ptr %29, align 8, !tbaa !14
  call void @llvm.lifetime.start.p0(i64 40, ptr %36) #6
  call void @OSSL_PARAM_construct_end(ptr dead_on_unwind writable sret(%struct.ossl_param_st) align 8 %36)
  call void @llvm.memcpy.p0.p0.i64(ptr align 8 %93, ptr align 8 %36, i64 40, i1 false), !tbaa.struct !20
  call void @llvm.lifetime.end.p0(i64 40, ptr %36) #6
  %94 = load ptr, ptr %26, align 8, !tbaa !18
  %95 = load ptr, ptr %19, align 8, !tbaa !3
  %96 = load i32, ptr %18, align 4, !tbaa !8
  %97 = sext i32 %96 to i64
  %98 = getelementptr inbounds [6 x %struct.ossl_param_st], ptr %28, i64 0, i64 0
  %99 = call i32 @EVP_KDF_derive(ptr noundef %94, ptr noundef %95, i64 noundef %97, ptr noundef %98)
  %100 = icmp ne i32 %99, 1
  br i1 %100, label %101, label %102

101:                                              ; preds = %75
  store i32 0, ptr %23, align 4, !tbaa !8
  br label %102

102:                                              ; preds = %101, %75
  %103 = load ptr, ptr %26, align 8, !tbaa !18
  call void @EVP_KDF_CTX_free(ptr noundef %103)
  br label %104

104:                                              ; preds = %102
  call void @llvm.lifetime.start.p0(i64 8, ptr %37) #6
  store ptr null, ptr %37, align 8, !tbaa !24
  call void @llvm.lifetime.end.p0(i64 8, ptr %37) #6
  br label %105

105:                                              ; preds = %104
  br label %106

106:                                              ; preds = %105
  %107 = load i32, ptr %23, align 4, !tbaa !8
  store i32 %107, ptr %11, align 4
  store i32 1, ptr %30, align 4
  br label %108

108:                                              ; preds = %106, %74, %67
  call void @llvm.lifetime.end.p0(i64 8, ptr %29) #6
  call void @llvm.lifetime.end.p0(i64 240, ptr %28) #6
  call void @llvm.lifetime.end.p0(i64 8, ptr %27) #6
  call void @llvm.lifetime.end.p0(i64 8, ptr %26) #6
  call void @llvm.lifetime.end.p0(i64 8, ptr %25) #6
  call void @llvm.lifetime.end.p0(i64 4, ptr %24) #6
  call void @llvm.lifetime.end.p0(i64 4, ptr %23) #6
  call void @llvm.lifetime.end.p0(i64 8, ptr %22) #6
  %109 = load i32, ptr %11, align 4
  ret i32 %109
}