; Function Attrs: nounwind uwtable
define range(i32 0, 2) i32 @ossl_pkcs5_pbkdf2_hmac_ex(ptr noundef %0, i32 noundef %1, ptr noundef %2, i32 noundef %3, i32 noundef %4, ptr noundef %5, i32 noundef %6, ptr noundef %7, ptr noundef %8, ptr noundef %9) local_unnamed_addr #0 {
  %11 = alloca i32, align 4
  %12 = alloca i32, align 4
  %13 = alloca [6 x %struct.ossl_param_st], align 16
  %14 = alloca %struct.ossl_param_st, align 8
  %15 = alloca %struct.ossl_param_st, align 8
  %16 = alloca %struct.ossl_param_st, align 8
  %17 = alloca %struct.ossl_param_st, align 8
  %18 = alloca %struct.ossl_param_st, align 8
  store i32 %4, ptr %11, align 4, !tbaa !3
  call void @llvm.lifetime.start.p0(i64 4, ptr nonnull %12) #6
  store i32 1, ptr %12, align 4, !tbaa !3
  %19 = tail call ptr @EVP_MD_get0_name(ptr noundef %5) #6
  call void @llvm.lifetime.start.p0(i64 240, ptr nonnull %13) #6
  %20 = icmp eq ptr %0, null
  br i1 %20, label %26, label %21

21:                                               ; preds = %10
  %22 = icmp eq i32 %1, -1
  br i1 %22, label %23, label %26

23:                                               ; preds = %21
  %24 = tail call i64 @strlen(ptr noundef nonnull dereferenceable(1) %0) #7
  %25 = trunc i64 %24 to i32
  br label %26

26:                                               ; preds = %10, %21, %23
  %.032 = phi i32 [ %25, %23 ], [ %1, %21 ], [ 0, %10 ]
  %.031 = phi ptr [ %0, %23 ], [ %0, %21 ], [ @.str, %10 ]
  %27 = icmp eq ptr %2, null
  %28 = icmp eq i32 %3, 0
  %or.cond = and i1 %27, %28
  %spec.select = select i1 %or.cond, ptr @.str, ptr %2
  %29 = tail call ptr @EVP_KDF_fetch(ptr noundef %8, ptr noundef nonnull @.str.1, ptr noundef %9) #6
  %30 = icmp eq ptr %29, null
  br i1 %30, label %44, label %31

31:                                               ; preds = %26
  %32 = tail call ptr @EVP_KDF_CTX_new(ptr noundef nonnull %29) #6
  tail call void @EVP_KDF_free(ptr noundef nonnull %29) #6
  %33 = icmp eq ptr %32, null
  br i1 %33, label %44, label %34

34:                                               ; preds = %31
  %35 = getelementptr inbounds nuw i8, ptr %13, i64 40
  %36 = sext i32 %.032 to i64
  call void @OSSL_PARAM_construct_octet_string(ptr dead_on_unwind nonnull writable sret(%struct.ossl_param_st) align 8 %13, ptr noundef nonnull @.str.2, ptr noundef nonnull %.031, i64 noundef %36) #6
  %37 = getelementptr inbounds nuw i8, ptr %13, i64 80
  call void @llvm.lifetime.start.p0(i64 40, ptr nonnull %14) #6
  call void @OSSL_PARAM_construct_int(ptr dead_on_unwind nonnull writable sret(%struct.ossl_param_st) align 8 %14, ptr noundef nonnull @.str.3, ptr noundef nonnull %12) #6
  call void @llvm.memcpy.p0.p0.i64(ptr noundef nonnull align 8 dereferenceable(40) %35, ptr noundef nonnull align 8 dereferenceable(40) %14, i64 40, i1 false), !tbaa.struct !7
  call void @llvm.lifetime.end.p0(i64 40, ptr nonnull %14) #6
  %38 = getelementptr inbounds nuw i8, ptr %13, i64 120
  call void @llvm.lifetime.start.p0(i64 40, ptr nonnull %15) #6
  %39 = sext i32 %3 to i64
  call void @OSSL_PARAM_construct_octet_string(ptr dead_on_unwind nonnull writable sret(%struct.ossl_param_st) align 8 %15, ptr noundef nonnull @.str.4, ptr noundef %spec.select, i64 noundef %39) #6
  call void @llvm.memcpy.p0.p0.i64(ptr noundef nonnull align 16 dereferenceable(40) %37, ptr noundef nonnull align 8 dereferenceable(40) %15, i64 40, i1 false), !tbaa.struct !7
  call void @llvm.lifetime.end.p0(i64 40, ptr nonnull %15) #6
  %40 = getelementptr inbounds nuw i8, ptr %13, i64 160
  call void @llvm.lifetime.start.p0(i64 40, ptr nonnull %16) #6
  call void @OSSL_PARAM_construct_int(ptr dead_on_unwind nonnull writable sret(%struct.ossl_param_st) align 8 %16, ptr noundef nonnull @.str.5, ptr noundef nonnull %11) #6
  call void @llvm.memcpy.p0.p0.i64(ptr noundef nonnull align 8 dereferenceable(40) %38, ptr noundef nonnull align 8 dereferenceable(40) %16, i64 40, i1 false), !tbaa.struct !7
  call void @llvm.lifetime.end.p0(i64 40, ptr nonnull %16) #6
  %41 = getelementptr inbounds nuw i8, ptr %13, i64 200
  call void @llvm.lifetime.start.p0(i64 40, ptr nonnull %17) #6
  call void @OSSL_PARAM_construct_utf8_string(ptr dead_on_unwind nonnull writable sret(%struct.ossl_param_st) align 8 %17, ptr noundef nonnull @.str.6, ptr noundef %19, i64 noundef 0) #6
  call void @llvm.memcpy.p0.p0.i64(ptr noundef nonnull align 16 dereferenceable(40) %40, ptr noundef nonnull align 8 dereferenceable(40) %17, i64 40, i1 false), !tbaa.struct !7
  call void @llvm.lifetime.end.p0(i64 40, ptr nonnull %17) #6
  call void @llvm.lifetime.start.p0(i64 40, ptr nonnull %18) #6
  call void @OSSL_PARAM_construct_end(ptr dead_on_unwind nonnull writable sret(%struct.ossl_param_st) align 8 %18) #6
  call void @llvm.memcpy.p0.p0.i64(ptr noundef nonnull align 8 dereferenceable(40) %41, ptr noundef nonnull align 8 dereferenceable(40) %18, i64 40, i1 false), !tbaa.struct !7
  call void @llvm.lifetime.end.p0(i64 40, ptr nonnull %18) #6
  %42 = sext i32 %6 to i64
  %43 = call i32 @EVP_KDF_derive(ptr noundef nonnull %32, ptr noundef %7, i64 noundef %42, ptr noundef nonnull %13) #6
  %.not = icmp eq i32 %43, 1
  %spec.select39 = zext i1 %.not to i32
  call void @EVP_KDF_CTX_free(ptr noundef nonnull %32) #6
  br label %44

44:                                               ; preds = %31, %26, %34
  %.0 = phi i32 [ %spec.select39, %34 ], [ 0, %26 ], [ 0, %31 ]
  call void @llvm.lifetime.end.p0(i64 240, ptr nonnull %13) #6
  call void @llvm.lifetime.end.p0(i64 4, ptr nonnull %12) #6
  ret i32 %.0
}